(dp0
Vengine
p1
S'pdflatex'
p2
sVpackages
p3
c__builtin__
set
p4
((lp5
tp6
Rp7
sVfiles_with_guttermarks
p8
g4
((lp9
V/Users/jdeboi/Documents/Teaching/Newman/CS/Thesis/Chapters/./Chapter1.tex
p10
aS'Chapter1.tex'
p11
aV/Users/jdeboi/Documents/Teaching/Newman/CS/Thesis/Chapters/Chapter1.tex
p12
atp13
Rp14
sVsynctex
p15
I01
s.